target datalayout = "e-m:e-p270:32:32-p271:32:32-p272:64:64-i64:64-i128:128-f80:128-n8:16:32:64-S128"
target triple = "x86_64-pc-linux-gnu"

%"class.std::__cxx11::basic_string" = type { %"struct.std::__cxx11::basic_string<char>::_Alloc_hider", i64, %union.anon }
%"struct.std::__cxx11::basic_string<char>::_Alloc_hider" = type { ptr }
%union.anon = type { i64, [8 x i8] }
%class.cmStateSnapshot = type { ptr, %"class.cmLinkedTree<cmStateDetail::SnapshotDataType>::iterator" }
%"class.cmLinkedTree<cmStateDetail::SnapshotDataType>::iterator" = type { ptr, i64 }
%"class.std::map" = type { %"class.std::_Rb_tree" }
%"class.std::_Rb_tree" = type { %"struct.std::_Rb_tree<std::__cxx11::basic_string<char>, std::pair<const std::__cxx11::basic_string<char>, std::__cxx11::basic_string<char>>, std::_Select1st<std::pair<const std::__cxx11::basic_string<char>, std::__cxx11::basic_string<char>>>, std::less<std::__cxx11::basic_string<char>>>::_Rb_tree_impl" }
%"struct.std::_Rb_tree<std::__cxx11::basic_string<char>, std::pair<const std::__cxx11::basic_string<char>, std::__cxx11::basic_string<char>>, std::_Select1st<std::pair<const std::__cxx11::basic_string<char>, std::__cxx11::basic_string<char>>>, std::less<std::__cxx11::basic_string<char>>>::_Rb_tree_impl" = type { %"struct.std::_Rb_tree_key_compare", %"struct.std::_Rb_tree_header" }
%"struct.std::_Rb_tree_key_compare" = type { %"struct.std::less" }
%"struct.std::less" = type { i8 }
%"struct.std::_Rb_tree_header" = type { %"struct.std::_Rb_tree_node_base", i64 }
%"struct.std::_Rb_tree_node_base" = type { i32, ptr, ptr, ptr }
%"class.std::vector" = type { %"struct.std::_Vector_base" }
%"struct.std::_Vector_base" = type { %"struct.std::_Vector_base<std::__cxx11::basic_string<char>, std::allocator<std::__cxx11::basic_string<char>>>::_Vector_impl" }
%"struct.std::_Vector_base<std::__cxx11::basic_string<char>, std::allocator<std::__cxx11::basic_string<char>>>::_Vector_impl" = type { %"struct.std::_Vector_base<std::__cxx11::basic_string<char>, std::allocator<std::__cxx11::basic_string<char>>>::_Vector_impl_data" }
%"struct.std::_Vector_base<std::__cxx11::basic_string<char>, std::allocator<std::__cxx11::basic_string<char>>>::_Vector_impl_data" = type { ptr, ptr, ptr }
%class.cmLocalGenerator = type { %class.cmOutputConverter.base, ptr, %class.cmListFileBacktrace, ptr, %"class.std::map", i64, %"class.std::set", %"class.std::vector", %"class.std::unordered_map", %"class.std::vector.15", %"class.std::set.20", %"class.std::unordered_map", %"class.std::vector.15", %"class.std::map", %"class.std::map", %"class.std::map", %"class.std::__cxx11::basic_string", %"class.std::__cxx11::basic_string", %"class.std::unordered_map.28", i8, i64, i8, %"class.std::unordered_map.42" }
%class.cmOutputConverter.base = type <{ ptr, %class.cmStateSnapshot, i8, [7 x i8], %"class.std::__cxx11::basic_string", %"class.std::__cxx11::basic_string", i32 }>
%class.cmListFileBacktrace = type { %class.cmConstStack }
%class.cmConstStack = type { %"class.std::shared_ptr" }
%"class.std::shared_ptr" = type { %"class.std::__shared_ptr" }
%"class.std::__shared_ptr" = type { ptr, %"class.std::__shared_count" }
%"class.std::__shared_count" = type { ptr }
%"class.std::set" = type { %"class.std::_Rb_tree.3" }
%"class.std::_Rb_tree.3" = type { %"struct.std::_Rb_tree<std::__cxx11::basic_string<char>, std::__cxx11::basic_string<char>, std::_Identity<std::__cxx11::basic_string<char>>, std::less<std::__cxx11::basic_string<char>>>::_Rb_tree_impl" }
%"struct.std::_Rb_tree<std::__cxx11::basic_string<char>, std::__cxx11::basic_string<char>, std::_Identity<std::__cxx11::basic_string<char>>, std::less<std::__cxx11::basic_string<char>>>::_Rb_tree_impl" = type { %"struct.std::_Rb_tree_key_compare", %"struct.std::_Rb_tree_header" }
%"class.std::set.20" = type { %"class.std::_Rb_tree.21" }
%"class.std::_Rb_tree.21" = type { %"struct.std::_Rb_tree<const cmGeneratorTarget *, const cmGeneratorTarget *, std::_Identity<const cmGeneratorTarget *>, std::less<const cmGeneratorTarget *>>::_Rb_tree_impl" }
%"struct.std::_Rb_tree<const cmGeneratorTarget *, const cmGeneratorTarget *, std::_Identity<const cmGeneratorTarget *>, std::less<const cmGeneratorTarget *>>::_Rb_tree_impl" = type { %"struct.std::_Rb_tree_key_compare.25", %"struct.std::_Rb_tree_header" }
%"struct.std::_Rb_tree_key_compare.25" = type { %"struct.std::less.26" }
%"struct.std::less.26" = type { i8 }
%"class.std::unordered_map" = type { %"class.std::_Hashtable" }
%"class.std::_Hashtable" = type { ptr, i64, %"struct.std::__detail::_Hash_node_base", i64, %"struct.std::__detail::_Prime_rehash_policy", ptr }
%"struct.std::__detail::_Hash_node_base" = type { ptr }
%"struct.std::__detail::_Prime_rehash_policy" = type { float, i64 }
%"class.std::vector.15" = type { %"struct.std::_Vector_base.16" }
%"struct.std::_Vector_base.16" = type { %"struct.std::_Vector_base<std::unique_ptr<cmGeneratorTarget>, std::allocator<std::unique_ptr<cmGeneratorTarget>>>::_Vector_impl" }
%"struct.std::_Vector_base<std::unique_ptr<cmGeneratorTarget>, std::allocator<std::unique_ptr<cmGeneratorTarget>>>::_Vector_impl" = type { %"struct.std::_Vector_base<std::unique_ptr<cmGeneratorTarget>, std::allocator<std::unique_ptr<cmGeneratorTarget>>>::_Vector_impl_data" }
%"struct.std::_Vector_base<std::unique_ptr<cmGeneratorTarget>, std::allocator<std::unique_ptr<cmGeneratorTarget>>>::_Vector_impl_data" = type { ptr, ptr, ptr }
%"class.std::unordered_map.28" = type { %"class.std::_Hashtable.29" }
%"class.std::_Hashtable.29" = type { ptr, i64, %"struct.std::__detail::_Hash_node_base", i64, %"struct.std::__detail::_Prime_rehash_policy", ptr }
%"class.std::unordered_map.42" = type { %"class.std::_Hashtable.43" }
%"class.std::_Hashtable.43" = type { ptr, i64, %"struct.std::__detail::_Hash_node_base", i64, %"struct.std::__detail::_Prime_rehash_policy", ptr }
%"struct.std::__detail::_Node_iterator_base.999" = type { ptr }
%"struct.std::pair.1000" = type { %"class.std::__cxx11::basic_string", %"struct.cmLocalGenerator::SourceEntry" }
%"struct.cmLocalGenerator::SourceEntry" = type { %struct.cmSourcesWithOutput }
%struct.cmSourcesWithOutput = type <{ ptr, ptr, i8, [7 x i8] }>
%"struct.std::pair.1025" = type <{ %"struct.std::__detail::_Node_iterator.1027", i8, [7 x i8] }>
%"struct.std::__detail::_Node_iterator.1027" = type { %"struct.std::__detail::_Node_iterator_base.999" }
%"struct.std::__detail::_Hash_node_value_base" = type { %"struct.__gnu_cxx::__aligned_buffer" }
%"struct.__gnu_cxx::__aligned_buffer" = type { %"union.std::aligned_storage<56, 8>::type" }
%"union.std::aligned_storage<56, 8>::type" = type { [56 x i8] }

; Function Attrs: mustprogress nounwind uwtable
define linkonce_odr dso_local noundef ptr @_ZN9__gnu_cxx16__aligned_bufferISt4pairIKNSt7__cxx1112basic_stringIcSt11char_traitsIcESaIcEEEN16cmLocalGenerator11SourceEntryEEE7_M_addrEv(ptr noundef nonnull align 8 dereferenceable(56) %0) #5 comdat align 2 {
  %2 = alloca ptr, align 8
  store ptr %0, ptr %2, align 8
  %3 = load ptr, ptr %2, align 8
  %4 = getelementptr inbounds %"struct.__gnu_cxx::__aligned_buffer", ptr %3, i32 0, i32 0
  ret ptr %4
}

; Function Attrs: mustprogress nounwind uwtable
define linkonce_odr dso_local noundef ptr @_ZN9__gnu_cxx16__aligned_bufferISt4pairIKNSt7__cxx1112basic_stringIcSt11char_traitsIcESaIcEEEN16cmLocalGenerator11SourceEntryEEE6_M_ptrEv(ptr noundef nonnull align 8 dereferenceable(56) %0) #5 comdat align 2 {
  %2 = alloca ptr, align 8
  store ptr %0, ptr %2, align 8
  %3 = load ptr, ptr %2, align 8
  %4 = call noundef ptr @_ZN9__gnu_cxx16__aligned_bufferISt4pairIKNSt7__cxx1112basic_stringIcSt11char_traitsIcESaIcEEEN16cmLocalGenerator11SourceEntryEEE7_M_addrEv(ptr noundef nonnull align 8 dereferenceable(56) %3) #3
  ret ptr %4
}

; Function Attrs: mustprogress nounwind uwtable
define linkonce_odr dso_local noundef ptr @_ZNSt8__detail21_Hash_node_value_baseISt4pairIKNSt7__cxx1112basic_stringIcSt11char_traitsIcESaIcEEEN16cmLocalGenerator11SourceEntryEEE9_M_valptrEv(ptr noundef nonnull align 8 dereferenceable(56) %0) #5 comdat align 2 {
  %2 = alloca ptr, align 8
  store ptr %0, ptr %2, align 8
  %3 = load ptr, ptr %2, align 8
  %4 = getelementptr inbounds %"struct.std::__detail::_Hash_node_value_base", ptr %3, i32 0, i32 0
  %5 = call noundef ptr @_ZN9__gnu_cxx16__aligned_bufferISt4pairIKNSt7__cxx1112basic_stringIcSt11char_traitsIcESaIcEEEN16cmLocalGenerator11SourceEntryEEE6_M_ptrEv(ptr noundef nonnull align 8 dereferenceable(56) %4) #3
  ret ptr %5
}

; Function Attrs: mustprogress uwtable
define linkonce_odr dso_local { ptr, i8 } @_ZNSt10_HashtableINSt7__cxx1112basic_stringIcSt11char_traitsIcESaIcEEESt4pairIKS5_N16cmLocalGenerator11SourceEntryEESaISA_ENSt8__detail10_Select1stESt8equal_toIS5_ESt4hashIS5_ENSC_18_Mod_range_hashingENSC_20_Default_ranged_hashENSC_20_Prime_rehash_policyENSC_17_Hashtable_traitsILb1ELb0ELb1EEEE7emplaceIJRS7_RS9_EEES6_INSC_14_Node_iteratorISA_Lb0ELb1EEEbEDpOT_(ptr noundef nonnull align 8 dereferenceable(56) %0, ptr noundef nonnull align 8 dereferenceable(32) %1, ptr noundef nonnull align 8 dereferenceable(24) %2) #4 comdat align 2 {
  %4 = alloca %"struct.std::pair.1025", align 8
  %5 = alloca ptr, align 8
  %6 = alloca ptr, align 8
  %7 = alloca ptr, align 8
  store ptr %0, ptr %5, align 8
  store ptr %1, ptr %6, align 8
  store ptr %2, ptr %7, align 8
  %8 = load ptr, ptr %5, align 8
  %9 = load ptr, ptr %6, align 8
  %10 = load ptr, ptr %7, align 8
  %11 = call { ptr, i8 } @_ZNSt10_HashtableINSt7__cxx1112basic_stringIcSt11char_traitsIcESaIcEEESt4pairIKS5_N16cmLocalGenerator11SourceEntryEESaISA_ENSt8__detail10_Select1stESt8equal_toIS5_ESt4hashIS5_ENSC_18_Mod_range_hashingENSC_20_Default_ranged_hashENSC_20_Prime_rehash_policyENSC_17_Hashtable_traitsILb1ELb0ELb1EEEE10_M_emplaceIJRS7_RS9_EEES6_INSC_14_Node_iteratorISA_Lb0ELb1EEEbESt17integral_constantIbLb1EEDpOT_(ptr noundef nonnull align 8 dereferenceable(56) %8, ptr noundef nonnull align 8 dereferenceable(32) %9, ptr noundef nonnull align 8 dereferenceable(24) %10)
  %12 = getelementptr inbounds { ptr, i8 }, ptr %4, i32 0, i32 0
  %13 = extractvalue { ptr, i8 } %11, 0
  store ptr %13, ptr %12, align 8
  %14 = getelementptr inbounds { ptr, i8 }, ptr %4, i32 0, i32 1
  %15 = extractvalue { ptr, i8 } %11, 1
  store i8 %15, ptr %14, align 8
  %16 = load { ptr, i8 }, ptr %4, align 8
  ret { ptr, i8 } %16
}

; Function Attrs: mustprogress nounwind uwtable
define linkonce_odr dso_local void @_ZN19cmSourcesWithOutputC2Ev(ptr noundef nonnull align 8 dereferenceable(17) %0) unnamed_addr #5 comdat align 2 {
  %2 = alloca ptr, align 8
  store ptr %0, ptr %2, align 8
  %3 = load ptr, ptr %2, align 8
  %4 = getelementptr inbounds %struct.cmSourcesWithOutput, ptr %3, i32 0, i32 0
  store ptr null, ptr %4, align 8
  %5 = getelementptr inbounds %struct.cmSourcesWithOutput, ptr %3, i32 0, i32 1
  store ptr null, ptr %5, align 8
  %6 = getelementptr inbounds %struct.cmSourcesWithOutput, ptr %3, i32 0, i32 2
  store i8 0, ptr %6, align 8
  ret void
}

; Function Attrs: mustprogress nounwind uwtable
define linkonce_odr dso_local noundef ptr @_ZNKSt8__detail14_Node_iteratorISt4pairIKNSt7__cxx1112basic_stringIcSt11char_traitsIcESaIcEEEN16cmLocalGenerator11SourceEntryEELb0ELb1EEptEv(ptr noundef nonnull align 8 dereferenceable(8) %0) #5 comdat align 2 {
  %2 = alloca ptr, align 8
  store ptr %0, ptr %2, align 8
  %3 = load ptr, ptr %2, align 8
  %4 = getelementptr inbounds %"struct.std::__detail::_Node_iterator_base.999", ptr %3, i32 0, i32 0
  %5 = load ptr, ptr %4, align 8
  %6 = getelementptr inbounds i8, ptr %5, i64 8
  %7 = call noundef ptr @_ZNSt8__detail21_Hash_node_value_baseISt4pairIKNSt7__cxx1112basic_stringIcSt11char_traitsIcESaIcEEEN16cmLocalGenerator11SourceEntryEEE9_M_valptrEv(ptr noundef nonnull align 8 dereferenceable(56) %6) #3
  ret ptr %7
}

; Function Attrs: mustprogress uwtable
define linkonce_odr dso_local { ptr, i8 } @_ZNSt13unordered_mapINSt7__cxx1112basic_stringIcSt11char_traitsIcESaIcEEEN16cmLocalGenerator11SourceEntryESt4hashIS5_ESt8equal_toIS5_ESaISt4pairIKS5_S7_EEE7emplaceIJRSD_RS7_EEESC_INSt8__detail14_Node_iteratorISE_Lb0ELb1EEEbEDpOT_(ptr noundef nonnull align 8 dereferenceable(56) %0, ptr noundef nonnull align 8 dereferenceable(32) %1, ptr noundef nonnull align 8 dereferenceable(24) %2) #4 comdat align 2 {
  %4 = alloca %"struct.std::pair.1025", align 8
  %5 = alloca ptr, align 8
  %6 = alloca ptr, align 8
  %7 = alloca ptr, align 8
  store ptr %0, ptr %5, align 8
  store ptr %1, ptr %6, align 8
  store ptr %2, ptr %7, align 8
  %8 = load ptr, ptr %5, align 8
  %9 = getelementptr inbounds %"class.std::unordered_map.42", ptr %8, i32 0, i32 0
  %10 = load ptr, ptr %6, align 8
  %11 = load ptr, ptr %7, align 8
  %12 = call { ptr, i8 } @_ZNSt10_HashtableINSt7__cxx1112basic_stringIcSt11char_traitsIcESaIcEEESt4pairIKS5_N16cmLocalGenerator11SourceEntryEESaISA_ENSt8__detail10_Select1stESt8equal_toIS5_ESt4hashIS5_ENSC_18_Mod_range_hashingENSC_20_Default_ranged_hashENSC_20_Prime_rehash_policyENSC_17_Hashtable_traitsILb1ELb0ELb1EEEE7emplaceIJRS7_RS9_EEES6_INSC_14_Node_iteratorISA_Lb0ELb1EEEbEDpOT_(ptr noundef nonnull align 8 dereferenceable(56) %9, ptr noundef nonnull align 8 dereferenceable(32) %10, ptr noundef nonnull align 8 dereferenceable(24) %11)
  %13 = getelementptr inbounds { ptr, i8 }, ptr %4, i32 0, i32 0
  %14 = extractvalue { ptr, i8 } %12, 0
  store ptr %14, ptr %13, align 8
  %15 = getelementptr inbounds { ptr, i8 }, ptr %4, i32 0, i32 1
  %16 = extractvalue { ptr, i8 } %12, 1
  store i8 %16, ptr %15, align 8
  %17 = load { ptr, i8 }, ptr %4, align 8
  ret { ptr, i8 } %17
}

; Function Attrs: mustprogress nounwind uwtable
define linkonce_odr dso_local void @_ZN16cmLocalGenerator11SourceEntryC2Ev(ptr noundef nonnull align 8 dereferenceable(24) %0) unnamed_addr #5 comdat align 2 {
  %2 = alloca ptr, align 8
  store ptr %0, ptr %2, align 8
  %3 = load ptr, ptr %2, align 8
  %4 = getelementptr inbounds %"struct.cmLocalGenerator::SourceEntry", ptr %3, i32 0, i32 0
  call void @_ZN19cmSourcesWithOutputC2Ev(ptr noundef nonnull align 8 dereferenceable(17) %4) #3
  ret void
}

; Function Attrs: mustprogress uwtable
define dso_local void @_ZN16cmLocalGenerator23UpdateOutputToSourceMapERKNSt7__cxx1112basic_stringIcSt11char_traitsIcESaIcEEEP8cmTargetRK19cmListFileBacktrace15cmCommandOrigin(ptr noundef nonnull align 8 dereferenceable(824) %0, ptr noundef nonnull align 8 dereferenceable(32) %1, ptr noundef %2, ptr noundef nonnull align 8 dereferenceable(16) %3, i32 noundef %4) #4 align 2 {
  %6 = alloca ptr, align 8
  %7 = alloca ptr, align 8
  %8 = alloca ptr, align 8
  %9 = alloca ptr, align 8
  %10 = alloca i32, align 4
  %11 = alloca %"struct.cmLocalGenerator::SourceEntry", align 8
  %12 = alloca %"struct.std::pair.1025", align 8
  %13 = alloca ptr, align 8
  store ptr %0, ptr %6, align 8
  store ptr %1, ptr %7, align 8
  store ptr %2, ptr %8, align 8
  store ptr %3, ptr %9, align 8
  store i32 %4, ptr %10, align 4
  %14 = load ptr, ptr %6, align 8
  call void @_ZN16cmLocalGenerator11SourceEntryC2Ev(ptr noundef nonnull align 8 dereferenceable(24) %11) #3
  %15 = load ptr, ptr %8, align 8
  %16 = getelementptr inbounds %"struct.cmLocalGenerator::SourceEntry", ptr %11, i32 0, i32 0
  %17 = getelementptr inbounds %struct.cmSourcesWithOutput, ptr %16, i32 0, i32 0
  store ptr %15, ptr %17, align 8
  %18 = getelementptr inbounds %class.cmLocalGenerator, ptr %14, i32 0, i32 22
  %19 = load ptr, ptr %7, align 8
  %20 = call { ptr, i8 } @_ZNSt13unordered_mapINSt7__cxx1112basic_stringIcSt11char_traitsIcESaIcEEEN16cmLocalGenerator11SourceEntryESt4hashIS5_ESt8equal_toIS5_ESaISt4pairIKS5_S7_EEE7emplaceIJRSD_RS7_EEESC_INSt8__detail14_Node_iteratorISE_Lb0ELb1EEEbEDpOT_(ptr noundef nonnull align 8 dereferenceable(56) %18, ptr noundef nonnull align 8 dereferenceable(32) %19, ptr noundef nonnull align 8 dereferenceable(24) %11)
  %21 = getelementptr inbounds { ptr, i8 }, ptr %12, i32 0, i32 0
  %22 = extractvalue { ptr, i8 } %20, 0
  store ptr %22, ptr %21, align 8
  %23 = getelementptr inbounds { ptr, i8 }, ptr %12, i32 0, i32 1
  %24 = extractvalue { ptr, i8 } %20, 1
  store i8 %24, ptr %23, align 8
  %25 = getelementptr inbounds %"struct.std::pair.1025", ptr %12, i32 0, i32 1
  %26 = load i8, ptr %25, align 8
  %27 = trunc i8 %26 to i1
  br i1 %27, label %28, label %32

28:                                               ; preds = %5
  %29 = load ptr, ptr %7, align 8
  %30 = load i32, ptr %10, align 4
  %31 = load ptr, ptr %9, align 8
  call void @_ZN12_GLOBAL__N_121CreateGeneratedSourceER16cmLocalGeneratorRKNSt7__cxx1112basic_stringIcSt11char_traitsIcESaIcEEENS0_10OutputRoleE15cmCommandOriginRK19cmListFileBacktrace(ptr noundef nonnull align 8 dereferenceable(824) %14, ptr noundef nonnull align 8 dereferenceable(32) %29, i32 noundef 1, i32 noundef %30, ptr noundef nonnull align 8 dereferenceable(16) %31)
  br label %48

32:                                               ; preds = %5
  %33 = getelementptr inbounds %"struct.std::pair.1025", ptr %12, i32 0, i32 0
  %34 = call noundef ptr @_ZNKSt8__detail14_Node_iteratorISt4pairIKNSt7__cxx1112basic_stringIcSt11char_traitsIcESaIcEEEN16cmLocalGenerator11SourceEntryEELb0ELb1EEptEv(ptr noundef nonnull align 8 dereferenceable(8) %33) #3
  %35 = getelementptr inbounds %"struct.std::pair.1000", ptr %34, i32 0, i32 1
  store ptr %35, ptr %13, align 8
  %36 = load ptr, ptr %13, align 8
  %37 = getelementptr inbounds %"struct.cmLocalGenerator::SourceEntry", ptr %36, i32 0, i32 0
  %38 = getelementptr inbounds %struct.cmSourcesWithOutput, ptr %37, i32 0, i32 0
  %39 = load ptr, ptr %38, align 8
  %40 = icmp ne ptr %39, null
  br i1 %40, label %46, label %41

41:                                               ; preds = %32
  %42 = load ptr, ptr %8, align 8
  %43 = load ptr, ptr %13, align 8
  %44 = getelementptr inbounds %"struct.cmLocalGenerator::SourceEntry", ptr %43, i32 0, i32 0
  %45 = getelementptr inbounds %struct.cmSourcesWithOutput, ptr %44, i32 0, i32 0
  store ptr %42, ptr %45, align 8
  br label %47

46:                                               ; preds = %32
  br label %47

47:                                               ; preds = %46, %41
  br label %48

48:                                               ; preds = %47, %28
  ret void
}