; Function Attrs: mustprogress uwtable
define dso_local void @_ZN16cmLocalGenerator23UpdateOutputToSourceMapERKNSt7__cxx1112basic_stringIcSt11char_traitsIcESaIcEEEP8cmTargetRK19cmListFileBacktrace15cmCommandOrigin(ptr noundef nonnull align 8 dereferenceable(824) %0, ptr noundef nonnull align 8 dereferenceable(32) %1, ptr noundef %2, ptr noundef nonnull align 8 dereferenceable(16) %3, i32 noundef %4) local_unnamed_addr #3 align 2 {
  %6 = alloca %"struct.cmLocalGenerator::SourceEntry", align 8
  %7 = getelementptr inbounds i8, ptr %6, i64 8
  call void @llvm.memset.p0.i64(ptr noundef nonnull align 8 dereferenceable(17) %7, i8 0, i64 9, i1 false)
  store ptr %2, ptr %6, align 8
  %8 = getelementptr inbounds i8, ptr %0, i64 768
  %9 = call { ptr, i8 } @_ZNSt10_HashtableINSt7__cxx1112basic_stringIcSt11char_traitsIcESaIcEEESt4pairIKS5_N16cmLocalGenerator11SourceEntryEESaISA_ENSt8__detail10_Select1stESt8equal_toIS5_ESt4hashIS5_ENSC_18_Mod_range_hashingENSC_20_Default_ranged_hashENSC_20_Prime_rehash_policyENSC_17_Hashtable_traitsILb1ELb0ELb1EEEE10_M_emplaceIJRS7_RS9_EEES6_INSC_14_Node_iteratorISA_Lb0ELb1EEEbESt17integral_constantIbLb1EEDpOT_(ptr noundef nonnull align 8 dereferenceable(56) %8, ptr noundef nonnull align 8 dereferenceable(32) %1, ptr noundef nonnull align 8 dereferenceable(24) %6)
  %10 = extractvalue { ptr, i8 } %9, 1
  %11 = and i8 %10, 1
  %.not = icmp eq i8 %11, 0
  br i1 %.not, label %13, label %12

12:                                               ; preds = %5
  call fastcc void @_ZN12_GLOBAL__N_121CreateGeneratedSourceER16cmLocalGeneratorRKNSt7__cxx1112basic_stringIcSt11char_traitsIcESaIcEEENS0_10OutputRoleE15cmCommandOriginRK19cmListFileBacktrace(ptr noundef nonnull align 8 dereferenceable(824) %0, ptr noundef nonnull align 8 dereferenceable(32) %1, i32 noundef 1, i32 noundef %4, ptr noundef nonnull align 8 dereferenceable(16) %3)
  br label %18

13:                                               ; preds = %5
  %14 = extractvalue { ptr, i8 } %9, 0
  %15 = getelementptr inbounds i8, ptr %14, i64 40
  %16 = load ptr, ptr %15, align 8
  %.not8 = icmp eq ptr %16, null
  br i1 %.not8, label %17, label %18

17:                                               ; preds = %13
  store ptr %2, ptr %15, align 8
  br label %18

18:                                               ; preds = %17, %13, %12
  ret void
}